; Function Attrs: mustprogress uwtable
define void @_ZN3zmq8reaper_t12process_stopEv(ptr noundef nonnull align 8 dereferenceable(240) %this) unnamed_addr #0 align 2 {
entry:
  %_terminating = getelementptr inbounds i8, ptr %this, i64 228
  store i8 1, ptr %_terminating, align 4
  %_sockets = getelementptr inbounds i8, ptr %this, i64 224
  %0 = load i32, ptr %_sockets, align 8
  %tobool.not = icmp eq i32 %0, 0
  br i1 %tobool.not, label %if.then, label %if.end

if.then:                                          ; preds = %entry
  tail call void @_ZN3zmq8object_t9send_doneEv(ptr noundef nonnull align 8 dereferenceable(20) %this)
  %_poller = getelementptr inbounds i8, ptr %this, i64 216
  %1 = load ptr, ptr %_poller, align 8
  %_mailbox_handle = getelementptr inbounds i8, ptr %this, i64 208
  %2 = load ptr, ptr %_mailbox_handle, align 8
  tail call void @_ZN3zmq7epoll_t5rm_fdEPv(ptr noundef nonnull align 8 dereferenceable(224) %1, ptr noundef %2)
  %3 = load ptr, ptr %_poller, align 8
  tail call void @_ZN3zmq7epoll_t4stopEv(ptr noundef nonnull align 8 dereferenceable(224) %3)
  br label %if.end

if.end:                                           ; preds = %if.then, %entry
  ret void
}